target datalayout = "e-m:e-p270:32:32-p271:32:32-p272:64:64-i64:64-i128:128-f80:128-n8:16:32:64-S128"
target triple = "x86_64-pc-linux-gnu"

%class.obj_ref = type { ptr, ptr }
%"class.sls::plugin" = type <{ ptr, ptr, ptr, i32, [4 x i8] }>
%class.symbol = type { ptr }
%class.app = type { %class.expr, ptr, i32, %struct.app_flags, [0 x ptr] }
%class.expr = type { %class.ast }
%class.ast = type { i32, i32, i32, i32 }
%struct.app_flags = type <{ i16, i8, i8 }>
%class.decl = type { %class.ast, %class.symbol, ptr }
%class.decl_info = type <{ i32, i32, %class.vector.34, i8, [7 x i8] }>
%class.vector.34 = type { ptr }

@.str = private unnamed_addr constant [116 x i8] c"generated/home/dtcxzyw/WorkSpace/Projects/compilers/llvm-opt-benchmark/bench/z3/z3/src/ast/sls/sls_basic_plugin.cpp\00", align 1
@.str.1 = private unnamed_addr constant [42 x i8] c"Failed to verify: m.is_ite(e, c, th, el)\0A\00", align 1

; Function Attrs: mustprogress nounwind uwtable
define linkonce_odr hidden noundef zeroext i1 @_ZNK9decl_info10is_decl_ofEii(ptr noundef nonnull align 8 dereferenceable(17) %0, i32 noundef %1, i32 noundef %2) #5 comdat align 2 {
  %4 = alloca ptr, align 8
  %5 = alloca i32, align 4
  %6 = alloca i32, align 4
  store ptr %0, ptr %4, align 8, !tbaa !157
  store i32 %1, ptr %5, align 4, !tbaa !107
  store i32 %2, ptr %6, align 4, !tbaa !107
  %7 = load ptr, ptr %4, align 8
  %8 = getelementptr inbounds nuw %class.decl_info, ptr %7, i32 0, i32 0
  %9 = load i32, ptr %8, align 8, !tbaa !158
  %10 = load i32, ptr %5, align 4, !tbaa !107
  %11 = icmp eq i32 %9, %10
  br i1 %11, label %12, label %17

12:                                               ; preds = %3
  %13 = load i32, ptr %6, align 4, !tbaa !107
  %14 = getelementptr inbounds nuw %class.decl_info, ptr %7, i32 0, i32 1
  %15 = load i32, ptr %14, align 4, !tbaa !162
  %16 = icmp eq i32 %13, %15
  br label %17

17:                                               ; preds = %12, %3
  %18 = phi i1 [ false, %3 ], [ %16, %12 ]
  ret i1 %18
}

; Function Attrs: mustprogress uwtable
define linkonce_odr hidden noundef zeroext i1 @_ZNK4decl10is_decl_ofEii(ptr noundef nonnull align 8 dereferenceable(32) %0, i32 noundef %1, i32 noundef %2) #4 comdat align 2 {
  %4 = alloca ptr, align 8
  %5 = alloca i32, align 4
  %6 = alloca i32, align 4
  store ptr %0, ptr %4, align 8, !tbaa !152
  store i32 %1, ptr %5, align 4, !tbaa !107
  store i32 %2, ptr %6, align 4, !tbaa !107
  %7 = load ptr, ptr %4, align 8
  %8 = getelementptr inbounds nuw %class.decl, ptr %7, i32 0, i32 2
  %9 = load ptr, ptr %8, align 8, !tbaa !154
  %10 = icmp ne ptr %9, null
  br i1 %10, label %11, label %17

11:                                               ; preds = %3
  %12 = getelementptr inbounds nuw %class.decl, ptr %7, i32 0, i32 2
  %13 = load ptr, ptr %12, align 8, !tbaa !154
  %14 = load i32, ptr %5, align 4, !tbaa !107
  %15 = load i32, ptr %6, align 4, !tbaa !107
  %16 = call noundef zeroext i1 @_ZNK9decl_info10is_decl_ofEii(ptr noundef nonnull align 8 dereferenceable(17) %13, i32 noundef %14, i32 noundef %15)
  br label %17

17:                                               ; preds = %11, %3
  %18 = phi i1 [ false, %3 ], [ %16, %11 ]
  ret i1 %18
}

; Function Attrs: mustprogress uwtable
define linkonce_odr hidden noundef zeroext i1 @_ZNK3app9is_app_ofEii(ptr noundef nonnull align 8 dereferenceable(32) %0, i32 noundef %1, i32 noundef %2) #4 comdat align 2 {
  %4 = alloca ptr, align 8
  %5 = alloca i32, align 4
  %6 = alloca i32, align 4
  store ptr %0, ptr %4, align 8, !tbaa !94
  store i32 %1, ptr %5, align 4, !tbaa !107
  store i32 %2, ptr %6, align 4, !tbaa !107
  %7 = load ptr, ptr %4, align 8
  %8 = getelementptr inbounds nuw %class.app, ptr %7, i32 0, i32 1
  %9 = load ptr, ptr %8, align 8, !tbaa !151
  %10 = load i32, ptr %5, align 4, !tbaa !107
  %11 = load i32, ptr %6, align 4, !tbaa !107
  %12 = call noundef zeroext i1 @_ZNK4decl10is_decl_ofEii(ptr noundef nonnull align 8 dereferenceable(32) %9, i32 noundef %10, i32 noundef %11)
  ret i1 %12
}

; Function Attrs: mustprogress nounwind uwtable
define linkonce_odr hidden noundef i32 @_ZNK3ast8get_kindEv(ptr noundef nonnull align 4 dereferenceable(16) %0) #5 comdat align 2 {
  %2 = alloca ptr, align 8
  store ptr %0, ptr %2, align 8, !tbaa !92
  %3 = load ptr, ptr %2, align 8
  %4 = getelementptr inbounds nuw %class.ast, ptr %3, i32 0, i32 1
  %5 = load i32, ptr %4, align 4
  %6 = and i32 %5, 65535
  ret i32 %6
}

; Function Attrs: inlinehint mustprogress uwtable
define linkonce_odr hidden noundef zeroext i1 @_Z9is_app_ofPK4exprii(ptr noundef %0, i32 noundef %1, i32 noundef %2) #6 comdat {
  %4 = alloca ptr, align 8
  %5 = alloca i32, align 4
  %6 = alloca i32, align 4
  store ptr %0, ptr %4, align 8, !tbaa !8
  store i32 %1, ptr %5, align 4, !tbaa !107
  store i32 %2, ptr %6, align 4, !tbaa !107
  %7 = load ptr, ptr %4, align 8, !tbaa !8
  %8 = call noundef i32 @_ZNK3ast8get_kindEv(ptr noundef nonnull align 4 dereferenceable(16) %7)
  %9 = icmp eq i32 %8, 0
  br i1 %9, label %10, label %16

10:                                               ; preds = %3
  %11 = load ptr, ptr %4, align 8, !tbaa !8
  %12 = call noundef ptr @_Z6to_appPK3ast(ptr noundef %11)
  %13 = load i32, ptr %5, align 4, !tbaa !107
  %14 = load i32, ptr %6, align 4, !tbaa !107
  %15 = call noundef zeroext i1 @_ZNK3app9is_app_ofEii(ptr noundef nonnull align 8 dereferenceable(32) %12, i32 noundef %13, i32 noundef %14)
  br label %16

16:                                               ; preds = %10, %3
  %17 = phi i1 [ false, %3 ], [ %15, %10 ]
  ret i1 %17
}

; Function Attrs: mustprogress nounwind uwtable
define linkonce_odr hidden noundef ptr @_ZNK3app7get_argEj(ptr noundef nonnull align 8 dereferenceable(32) %0, i32 noundef %1) #5 comdat align 2 {
  %3 = alloca ptr, align 8
  %4 = alloca i32, align 4
  store ptr %0, ptr %3, align 8, !tbaa !94
  store i32 %1, ptr %4, align 4, !tbaa !107
  %5 = load ptr, ptr %3, align 8
  %6 = getelementptr inbounds nuw %class.app, ptr %5, i32 0, i32 4
  %7 = load i32, ptr %4, align 4, !tbaa !107
  %8 = zext i32 %7 to i64
  %9 = getelementptr inbounds nuw [0 x ptr], ptr %6, i64 0, i64 %8
  %10 = load ptr, ptr %9, align 8, !tbaa !8
  ret ptr %10
}

; Function Attrs: inlinehint mustprogress nounwind uwtable
define linkonce_odr hidden noundef ptr @_Z6to_appPK3ast(ptr noundef %0) #7 comdat {
  %2 = alloca ptr, align 8
  store ptr %0, ptr %2, align 8, !tbaa !92
  %3 = load ptr, ptr %2, align 8, !tbaa !92
  ret ptr %3
}

; Function Attrs: mustprogress uwtable
define linkonce_odr hidden noundef zeroext i1 @_ZNK11ast_manager6is_iteEPK4expr(ptr noundef nonnull align 8 dereferenceable(976) %0, ptr noundef %1) #4 comdat align 2 {
  %3 = alloca ptr, align 8
  %4 = alloca ptr, align 8
  store ptr %0, ptr %3, align 8, !tbaa !15
  store ptr %1, ptr %4, align 8, !tbaa !8
  %5 = load ptr, ptr %4, align 8, !tbaa !8
  %6 = call noundef zeroext i1 @_Z9is_app_ofPK4exprii(ptr noundef %5, i32 noundef 0, i32 noundef 4)
  ret i1 %6
}

; Function Attrs: mustprogress uwtable
define hidden noundef zeroext i1 @_ZNK3sls12basic_plugin5bval0EP4expr(ptr noundef nonnull align 8 dereferenceable(56) %0, ptr noundef %1) #4 align 2 {
  %3 = alloca ptr, align 8
  %4 = alloca ptr, align 8
  store ptr %0, ptr %3, align 8, !tbaa !3
  store ptr %1, ptr %4, align 8, !tbaa !8
  %5 = load ptr, ptr %3, align 8
  %6 = getelementptr inbounds nuw %"class.sls::plugin", ptr %5, i32 0, i32 1
  %7 = load ptr, ptr %6, align 8, !tbaa !87
  %8 = load ptr, ptr %4, align 8, !tbaa !8
  %9 = call noundef zeroext i1 @_ZN3sls7context7is_trueEP4expr(ptr noundef nonnull align 8 dereferenceable(321) %7, ptr noundef %8)
  ret i1 %9
}

; Function Attrs: mustprogress uwtable
define linkonce_odr hidden noundef zeroext i1 @_ZNK11ast_manager6is_iteEPK4exprRPS0_S4_S4_(ptr noundef nonnull align 8 dereferenceable(976) %0, ptr noundef %1, ptr noundef nonnull align 8 dereferenceable(8) %2, ptr noundef nonnull align 8 dereferenceable(8) %3, ptr noundef nonnull align 8 dereferenceable(8) %4) #4 comdat align 2 {
  %6 = alloca i1, align 1
  %7 = alloca ptr, align 8
  %8 = alloca ptr, align 8
  %9 = alloca ptr, align 8
  %10 = alloca ptr, align 8
  %11 = alloca ptr, align 8
  store ptr %0, ptr %7, align 8, !tbaa !15
  store ptr %1, ptr %8, align 8, !tbaa !8
  store ptr %2, ptr %9, align 8, !tbaa !101
  store ptr %3, ptr %10, align 8, !tbaa !101
  store ptr %4, ptr %11, align 8, !tbaa !101
  %12 = load ptr, ptr %7, align 8
  %13 = load ptr, ptr %8, align 8, !tbaa !8
  %14 = call noundef zeroext i1 @_ZNK11ast_manager6is_iteEPK4expr(ptr noundef nonnull align 8 dereferenceable(976) %12, ptr noundef %13)
  br i1 %14, label %15, label %28

15:                                               ; preds = %5
  %16 = load ptr, ptr %8, align 8, !tbaa !8
  %17 = call noundef ptr @_Z6to_appPK3ast(ptr noundef %16)
  %18 = call noundef ptr @_ZNK3app7get_argEj(ptr noundef nonnull align 8 dereferenceable(32) %17, i32 noundef 0)
  %19 = load ptr, ptr %9, align 8, !tbaa !101
  store ptr %18, ptr %19, align 8, !tbaa !8
  %20 = load ptr, ptr %8, align 8, !tbaa !8
  %21 = call noundef ptr @_Z6to_appPK3ast(ptr noundef %20)
  %22 = call noundef ptr @_ZNK3app7get_argEj(ptr noundef nonnull align 8 dereferenceable(32) %21, i32 noundef 1)
  %23 = load ptr, ptr %10, align 8, !tbaa !101
  store ptr %22, ptr %23, align 8, !tbaa !8
  %24 = load ptr, ptr %8, align 8, !tbaa !8
  %25 = call noundef ptr @_Z6to_appPK3ast(ptr noundef %24)
  %26 = call noundef ptr @_ZNK3app7get_argEj(ptr noundef nonnull align 8 dereferenceable(32) %25, i32 noundef 2)
  %27 = load ptr, ptr %11, align 8, !tbaa !101
  store ptr %26, ptr %27, align 8, !tbaa !8
  store i1 true, ptr %6, align 1
  br label %29

28:                                               ; preds = %5
  store i1 false, ptr %6, align 1
  br label %29

29:                                               ; preds = %28, %15
  %30 = load i1, ptr %6, align 1
  ret i1 %30
}

; Function Attrs: mustprogress uwtable
define hidden void @_ZN3sls12basic_plugin8eval_iteEP3app(ptr dead_on_unwind noalias writable sret(%class.obj_ref) align 8 %0, ptr noundef nonnull align 8 dereferenceable(56) %1, ptr noundef %2) #4 align 2 {
  %4 = alloca ptr, align 8
  %5 = alloca ptr, align 8
  %6 = alloca ptr, align 8
  %7 = alloca ptr, align 8
  %8 = alloca ptr, align 8
  %9 = alloca ptr, align 8
  %10 = alloca i32, align 4
  store ptr %0, ptr %4, align 8
  store ptr %1, ptr %5, align 8, !tbaa !3
  store ptr %2, ptr %6, align 8, !tbaa !94
  %11 = load ptr, ptr %5, align 8
  call void @llvm.lifetime.start.p0(i64 8, ptr %7) #3
  store ptr null, ptr %7, align 8, !tbaa !8
  call void @llvm.lifetime.start.p0(i64 8, ptr %8) #3
  store ptr null, ptr %8, align 8, !tbaa !8
  call void @llvm.lifetime.start.p0(i64 8, ptr %9) #3
  store ptr null, ptr %9, align 8, !tbaa !8
  %12 = getelementptr inbounds nuw %"class.sls::plugin", ptr %11, i32 0, i32 2
  %13 = load ptr, ptr %12, align 8, !tbaa !10
  %14 = load ptr, ptr %6, align 8, !tbaa !94
  %15 = call noundef zeroext i1 @_ZNK11ast_manager6is_iteEPK4exprRPS0_S4_S4_(ptr noundef nonnull align 8 dereferenceable(976) %13, ptr noundef %14, ptr noundef nonnull align 8 dereferenceable(8) %7, ptr noundef nonnull align 8 dereferenceable(8) %8, ptr noundef nonnull align 8 dereferenceable(8) %9)
  br i1 %15, label %17, label %16

16:                                               ; preds = %3
  call void @_Z26notify_assertion_violationPKciS0_(ptr noundef @.str, i32 noundef 85, ptr noundef @.str.1)
  call void @_Z18invoke_exit_actionj(i32 noundef 114)
  br label %17

17:                                               ; preds = %16, %3
  %18 = load ptr, ptr %7, align 8, !tbaa !8
  %19 = call noundef zeroext i1 @_ZNK3sls12basic_plugin5bval0EP4expr(ptr noundef nonnull align 8 dereferenceable(56) %11, ptr noundef %18)
  br i1 %19, label %20, label %24

20:                                               ; preds = %17
  %21 = getelementptr inbounds nuw %"class.sls::plugin", ptr %11, i32 0, i32 1
  %22 = load ptr, ptr %21, align 8, !tbaa !87
  %23 = load ptr, ptr %8, align 8, !tbaa !8
  call void @_ZN3sls7context9get_valueEP4expr(ptr dead_on_unwind writable sret(%class.obj_ref) align 8 %0, ptr noundef nonnull align 8 dereferenceable(321) %22, ptr noundef %23)
  store i32 1, ptr %10, align 4
  br label %28

24:                                               ; preds = %17
  %25 = getelementptr inbounds nuw %"class.sls::plugin", ptr %11, i32 0, i32 1
  %26 = load ptr, ptr %25, align 8, !tbaa !87
  %27 = load ptr, ptr %9, align 8, !tbaa !8
  call void @_ZN3sls7context9get_valueEP4expr(ptr dead_on_unwind writable sret(%class.obj_ref) align 8 %0, ptr noundef nonnull align 8 dereferenceable(321) %26, ptr noundef %27)
  store i32 1, ptr %10, align 4
  br label %28

28:                                               ; preds = %24, %20
  call void @llvm.lifetime.end.p0(i64 8, ptr %9) #3
  call void @llvm.lifetime.end.p0(i64 8, ptr %8) #3
  call void @llvm.lifetime.end.p0(i64 8, ptr %7) #3
  ret void
}