; Function Attrs: mustprogress uwtable
define hidden void @_ZN3sls12basic_plugin8eval_iteEP3app(ptr dead_on_unwind noalias writable sret(%class.obj_ref) align 8 %0, ptr noundef nonnull readonly align 8 captures(none) dereferenceable(56) %1, ptr noundef readonly captures(none) %2) local_unnamed_addr #3 align 2 {
  %4 = getelementptr inbounds nuw i8, ptr %2, i64 4
  %5 = load i32, ptr %4, align 4
  %6 = and i32 %5, 65535
  %7 = icmp eq i32 %6, 0
  br i1 %7, label %8, label %25

8:                                                ; preds = %3
  %9 = getelementptr inbounds nuw i8, ptr %2, i64 16
  %10 = load ptr, ptr %9, align 8, !tbaa !20
  %11 = getelementptr inbounds nuw i8, ptr %10, i64 24
  %12 = load ptr, ptr %11, align 8, !tbaa !25
  %.not.i.i.i.i.i = icmp eq ptr %12, null
  br i1 %.not.i.i.i.i.i, label %25, label %_ZNK11ast_manager6is_iteEPK4expr.exit.i

_ZNK11ast_manager6is_iteEPK4expr.exit.i:          ; preds = %8
  %13 = load i32, ptr %12, align 8, !tbaa !30
  %14 = icmp eq i32 %13, 0
  %15 = getelementptr inbounds nuw i8, ptr %12, i64 4
  %16 = load i32, ptr %15, align 4
  %17 = icmp eq i32 %16, 4
  %18 = select i1 %14, i1 %17, i1 false
  br i1 %18, label %_ZNK11ast_manager6is_iteEPK4exprRPS0_S4_S4_.exit, label %25

_ZNK11ast_manager6is_iteEPK4exprRPS0_S4_S4_.exit: ; preds = %_ZNK11ast_manager6is_iteEPK4expr.exit.i
  %19 = getelementptr inbounds nuw i8, ptr %2, i64 32
  %20 = load ptr, ptr %19, align 8, !tbaa !36
  %21 = getelementptr inbounds nuw i8, ptr %2, i64 40
  %22 = load ptr, ptr %21, align 8, !tbaa !36
  %23 = getelementptr inbounds nuw i8, ptr %2, i64 48
  %24 = load ptr, ptr %23, align 8, !tbaa !36
  br label %26

25:                                               ; preds = %_ZNK11ast_manager6is_iteEPK4expr.exit.i, %3, %8
  tail call void @_Z26notify_assertion_violationPKciS0_(ptr noundef nonnull @.str, i32 noundef 85, ptr noundef nonnull @.str.1)
  tail call void @_Z18invoke_exit_actionj(i32 noundef 114)
  br label %26

26:                                               ; preds = %_ZNK11ast_manager6is_iteEPK4exprRPS0_S4_S4_.exit, %25
  %.014 = phi ptr [ null, %25 ], [ %24, %_ZNK11ast_manager6is_iteEPK4exprRPS0_S4_S4_.exit ]
  %.0412 = phi ptr [ null, %25 ], [ %22, %_ZNK11ast_manager6is_iteEPK4exprRPS0_S4_S4_.exit ]
  %.0510 = phi ptr [ null, %25 ], [ %20, %_ZNK11ast_manager6is_iteEPK4exprRPS0_S4_S4_.exit ]
  %27 = getelementptr inbounds nuw i8, ptr %1, i64 8
  %28 = load ptr, ptr %27, align 8, !tbaa !11
  %29 = tail call noundef zeroext i1 @_ZN3sls7context7is_trueEP4expr(ptr noundef nonnull align 8 dereferenceable(321) %28, ptr noundef %.0510)
  %30 = load ptr, ptr %27, align 8, !tbaa !11
  %.0412..014 = select i1 %29, ptr %.0412, ptr %.014
  tail call void @_ZN3sls7context9get_valueEP4expr(ptr dead_on_unwind writable sret(%class.obj_ref) align 8 %0, ptr noundef nonnull align 8 dereferenceable(321) %30, ptr noundef %.0412..014)
  ret void
}